Certificate:
    Data:
        Version: 3 (0x2)
        Serial Number:
            83:50:b5:e4:02:2e:a1:65:c8:80:c9:51:ec:31:a9:69
        Signature Algorithm: sha256WithRSAEncryption
        Issuer: CN=notify-gha-vpn
        Validity
            Not Before: Jun  7 15:09:27 2024 GMT
            Not After : Sep 10 15:09:27 2026 GMT
        Subject: CN=server
        Subject Public Key Info:
            Public Key Algorithm: rsaEncryption
                Public-Key: (2048 bit)
                Modulus:
                    00:bc:32:a1:93:74:2b:63:db:a1:14:f1:ff:f7:6b:
                    54:e5:c2:22:33:a6:b8:ea:a7:76:51:47:d5:ad:86:
                    ca:72:31:bc:11:7d:54:d0:f4:e0:cb:67:6a:5c:f2:
                    90:c9:2c:bd:9c:69:7a:9c:85:22:4e:bb:72:d1:31:
                    08:12:31:79:6b:06:1e:8d:11:ba:7a:61:b8:fb:45:
                    ca:ad:e8:1f:f3:a0:3c:e6:ad:82:4d:6e:06:f0:4b:
                    0c:06:01:57:59:2d:f2:84:53:ec:88:87:25:a1:8d:
                    0f:13:f5:a1:d1:ce:ba:7c:8a:49:a0:b6:dd:59:bd:
                    12:7c:09:c0:08:d4:16:9c:51:d6:73:47:8c:c7:f7:
                    97:3f:df:17:49:9d:b1:80:05:70:97:2b:c8:7b:54:
                    9f:ff:15:f8:8e:e6:4d:29:c0:8d:6e:4f:ae:5d:52:
                    5d:be:15:c5:9f:e8:a5:10:9b:52:69:4e:b0:53:10:
                    1c:a3:db:39:3e:4f:70:93:5c:5a:0d:60:5d:d9:98:
                    6b:ef:b5:b0:44:ce:26:54:d9:de:22:27:6b:91:fe:
                    a6:ed:31:00:ff:cf:55:5a:4d:c8:04:63:f3:31:87:
                    32:0f:7b:e3:80:57:54:1f:6a:fb:d4:7e:1f:e9:e2:
                    08:84:7b:08:33:70:53:0c:88:4f:85:2b:c5:a5:24:
                    b7:db
                Exponent: 65537 (0x10001)
        X509v3 extensions:
            X509v3 Basic Constraints: 
                CA:FALSE
            X509v3 Subject Key Identifier: 
                1E:A6:F7:38:3E:D2:6C:41:2B:78:30:E1:C1:F5:CC:A7:DF:8A:D7:E7
            X509v3 Authority Key Identifier: 
                keyid:4E:23:70:53:C0:7D:37:E6:98:9C:76:69:1E:11:4F:A3:75:6D:C2:25
                DirName:/CN=notify-gha-vpn
                serial:18:D4:3C:D3:FA:8D:D9:1E:FC:11:F0:2E:E3:74:A1:0F:DF:A7:42:57
            X509v3 Extended Key Usage: 
                TLS Web Server Authentication
            X509v3 Key Usage: 
                Digital Signature, Key Encipherment
            X509v3 Subject Alternative Name: 
                DNS:server
    Signature Algorithm: sha256WithRSAEncryption
    Signature Value:
        6e:97:63:20:03:24:6c:f5:60:6c:5e:d4:69:13:9c:7e:0f:fc:
        3d:af:8a:15:82:f7:b1:75:ac:48:65:a0:be:5a:5e:c7:de:53:
        6c:54:d4:ce:43:37:00:54:2e:7f:7b:1e:73:bf:62:e9:2a:37:
        9c:5d:76:69:90:b4:f1:8a:ad:b4:98:e5:ef:6c:da:ee:b2:1a:
        6c:53:3e:f6:7e:80:00:17:3f:f1:e9:a7:a1:12:93:56:9f:ef:
        a3:f6:16:84:d1:46:f8:cf:97:15:cf:ad:75:78:07:73:ca:8c:
        ea:73:67:a5:a2:8f:e0:95:79:07:72:f0:57:2d:92:3d:54:1b:
        da:2e:4f:e7:79:68:b7:dd:1b:03:58:a3:c3:d1:15:6a:05:d1:
        78:f3:83:ea:4e:7f:e4:52:94:3f:54:8c:21:85:fc:b9:18:cd:
        3b:41:19:33:70:3d:ba:16:6b:e8:d1:3e:c9:fd:3a:51:3d:71:
        f2:eb:c4:44:cd:92:29:8c:58:66:ec:40:1e:c0:1b:d4:d2:98:
        8a:df:60:ad:39:b0:b8:05:51:87:25:55:53:52:e5:50:e5:d3:
        de:77:59:51:bd:51:21:68:43:fd:20:42:75:28:16:0e:a8:8d:
        79:43:2e:2f:78:cf:76:8e:ed:5e:55:e7:c7:3b:b5:eb:07:60:
        eb:8d:e4:79
-----BEGIN CERTIFICATE-----
MIIDbjCCAlagAwIBAgIRAINQteQCLqFlyIDJUewxqWkwDQYJKoZIhvcNAQELBQAw
GTEXMBUGA1UEAwwObm90aWZ5LWdoYS12cG4wHhcNMjQwNjA3MTUwOTI3WhcNMjYw
OTEwMTUwOTI3WjARMQ8wDQYDVQQDDAZzZXJ2ZXIwggEiMA0GCSqGSIb3DQEBAQUA
A4IBDwAwggEKAoIBAQC8MqGTdCtj26EU8f/3a1TlwiIzprjqp3ZRR9WthspyMbwR
fVTQ9ODLZ2pc8pDJLL2caXqchSJOu3LRMQgSMXlrBh6NEbp6Ybj7Rcqt6B/zoDzm
rYJNbgbwSwwGAVdZLfKEU+yIhyWhjQ8T9aHRzrp8ikmgtt1ZvRJ8CcAI1BacUdZz
R4zH95c/3xdJnbGABXCXK8h7VJ//FfiO5k0pwI1uT65dUl2+FcWf6KUQm1JpTrBT
EByj2zk+T3CTXFoNYF3ZmGvvtbBEziZU2d4iJ2uR/qbtMQD/z1VaTcgEY/MxhzIP
e+OAV1QfavvUfh/p4giEewgzcFMMiE+FK8WlJLfbAgMBAAGjgbgwgbUwCQYDVR0T
BAIwADAdBgNVHQ4EFgQUHqb3OD7SbEEreDDhwfXMp9+K1+cwVAYDVR0jBE0wS4AU
TiNwU8B9N+aYnHZpHhFPo3VtwiWhHaQbMBkxFzAVBgNVBAMMDm5vdGlmeS1naGEt
dnBughQY1DzT+o3ZHvwR8C7jdKEP36dCVzATBgNVHSUEDDAKBggrBgEFBQcDATAL
BgNVHQ8EBAMCBaAwEQYDVR0RBAowCIIGc2VydmVyMA0GCSqGSIb3DQEBCwUAA4IB
AQBul2MgAyRs9WBsXtRpE5x+D/w9r4oVgvexdaxIZaC+Wl7H3lNsVNTOQzcAVC5/
ex5zv2LpKjecXXZpkLTxiq20mOXvbNrushpsUz72foAAFz/x6aehEpNWn++j9haE
0Ub4z5cVz611eAdzyozqc2eloo/glXkHcvBXLZI9VBvaLk/neWi33RsDWKPD0RVq
BdF484PqTn/kUpQ/VIwhhfy5GM07QRkzcD26Fmvo0T7J/TpRPXHy68REzZIpjFhm
7EAewBvU0piK32CtObC4BVGHJVVTUuVQ5dPed1lRvVEhaEP9IEJ1KBYOqI15Qy4v
eM92ju1eVefHO7XrB2DrjeR5
-----END CERTIFICATE-----
